target datalayout = "e-m:e-p270:32:32-p271:32:32-p272:64:64-i64:64-i128:128-f80:128-n8:16:32:64-S128"
target triple = "x86_64-pc-linux-gnu"

%struct.wl_interface = type { ptr, i32, i32, ptr, i32, ptr }
%struct.SDL_WaylandSeat = type { ptr, ptr, ptr, ptr, ptr, %struct.wl_list, i32, i32, %struct.anon, %struct.anon.1, %struct.anon.4, %struct.anon.5, %struct.anon.6 }
%struct.wl_list = type { ptr, ptr }
%struct.anon = type { ptr, ptr, ptr, ptr, ptr, %struct.SDL_WaylandKeyboardRepeat, i64, i16, i16, i32, i8, %struct.anon.0 }
%struct.SDL_WaylandKeyboardRepeat = type { i32, i32, i32, i8, i8, i32, i64, i64, i64, i32, [8 x i8] }
%struct.anon.0 = type { ptr, ptr, ptr, ptr, i32, i32, i32, i32, i32, i32, i32, i32, i32, i32, i32 }
%struct.anon.1 = type { ptr, ptr, ptr, ptr, ptr, ptr, ptr, ptr, i64, i32, i32, %struct.SDL_Point, i32, %struct.anon.2, %struct.anon.3 }
%struct.SDL_Point = type { i32, i32 }
%struct.anon.2 = type { i32, float, i32, float, i64, i32 }
%struct.anon.3 = type { ptr, ptr, ptr, i64, i64, i32 }
%struct.anon.4 = type { ptr, ptr, i64, %struct.wl_list }
%struct.anon.5 = type { ptr, %struct.SDL_Rect, i8, i8 }
%struct.SDL_Rect = type { i32, i32, i32, i32 }
%struct.anon.6 = type { ptr, %struct.wl_list }
%struct.SDL_VideoData = type { i8, ptr, i32, ptr, ptr, ptr, ptr, i32, %struct.anon.7, ptr, ptr, ptr, ptr, ptr, ptr, ptr, ptr, ptr, ptr, ptr, ptr, ptr, ptr, ptr, ptr, ptr, ptr, ptr, ptr, ptr, ptr, %struct.wl_list, ptr, ptr, ptr, ptr, i32, i32, i8, i8 }
%struct.anon.7 = type { ptr }

@WAYLAND_wl_proxy_marshal_flags = external global ptr, align 8
@WAYLAND_wl_proxy_get_version = external global ptr, align 8
@wp_cursor_shape_device_v1_interface = external constant %struct.wl_interface, align 8

; Function Attrs: inlinehint nounwind uwtable
define internal ptr @wp_cursor_shape_manager_v1_get_pointer(ptr noundef %0, ptr noundef %1) #2 {
  %3 = alloca ptr, align 8
  %4 = alloca ptr, align 8
  %5 = alloca ptr, align 8
  store ptr %0, ptr %3, align 8
  store ptr %1, ptr %4, align 8
  call void @llvm.lifetime.start.p0(i64 8, ptr %5) #10
  %6 = load ptr, ptr @WAYLAND_wl_proxy_marshal_flags, align 8
  %7 = load ptr, ptr %3, align 8
  %8 = load ptr, ptr @WAYLAND_wl_proxy_get_version, align 8
  %9 = load ptr, ptr %3, align 8
  %10 = call i32 %8(ptr noundef %9)
  %11 = load ptr, ptr %4, align 8
  %12 = call ptr (ptr, i32, ptr, i32, i32, ...) %6(ptr noundef %7, i32 noundef 1, ptr noundef @wp_cursor_shape_device_v1_interface, i32 noundef %10, i32 noundef 0, ptr noundef null, ptr noundef %11)
  store ptr %12, ptr %5, align 8
  %13 = load ptr, ptr %5, align 8
  call void @llvm.lifetime.end.p0(i64 8, ptr %5) #10
  ret ptr %13
}

; Function Attrs: nounwind uwtable
define internal void @Wayland_SeatCreateCursorShape(ptr noundef %0) #0 {
  %2 = alloca ptr, align 8
  store ptr %0, ptr %2, align 8
  %3 = load ptr, ptr %2, align 8
  %4 = getelementptr inbounds nuw %struct.SDL_WaylandSeat, ptr %3, i32 0, i32 0
  %5 = load ptr, ptr %4, align 8
  %6 = getelementptr inbounds nuw %struct.SDL_VideoData, ptr %5, i32 0, i32 11
  %7 = load ptr, ptr %6, align 8
  %8 = icmp ne ptr %7, null
  br i1 %8, label %9, label %36

9:                                                ; preds = %1
  %10 = load ptr, ptr %2, align 8
  %11 = getelementptr inbounds nuw %struct.SDL_WaylandSeat, ptr %10, i32 0, i32 9
  %12 = getelementptr inbounds nuw %struct.anon.1, ptr %11, i32 0, i32 0
  %13 = load ptr, ptr %12, align 8
  %14 = icmp ne ptr %13, null
  br i1 %14, label %15, label %35

15:                                               ; preds = %9
  %16 = load ptr, ptr %2, align 8
  %17 = getelementptr inbounds nuw %struct.SDL_WaylandSeat, ptr %16, i32 0, i32 9
  %18 = getelementptr inbounds nuw %struct.anon.1, ptr %17, i32 0, i32 3
  %19 = load ptr, ptr %18, align 8
  %20 = icmp ne ptr %19, null
  br i1 %20, label %35, label %21

21:                                               ; preds = %15
  %22 = load ptr, ptr %2, align 8
  %23 = getelementptr inbounds nuw %struct.SDL_WaylandSeat, ptr %22, i32 0, i32 0
  %24 = load ptr, ptr %23, align 8
  %25 = getelementptr inbounds nuw %struct.SDL_VideoData, ptr %24, i32 0, i32 11
  %26 = load ptr, ptr %25, align 8
  %27 = load ptr, ptr %2, align 8
  %28 = getelementptr inbounds nuw %struct.SDL_WaylandSeat, ptr %27, i32 0, i32 9
  %29 = getelementptr inbounds nuw %struct.anon.1, ptr %28, i32 0, i32 0
  %30 = load ptr, ptr %29, align 8
  %31 = call ptr @wp_cursor_shape_manager_v1_get_pointer(ptr noundef %26, ptr noundef %30)
  %32 = load ptr, ptr %2, align 8
  %33 = getelementptr inbounds nuw %struct.SDL_WaylandSeat, ptr %32, i32 0, i32 9
  %34 = getelementptr inbounds nuw %struct.anon.1, ptr %33, i32 0, i32 3
  store ptr %31, ptr %34, align 8
  br label %35

35:                                               ; preds = %21, %15, %9
  br label %36

36:                                               ; preds = %35, %1
  ret void
}

; Function Attrs: nounwind uwtable
define hidden void @Wayland_DisplayInitCursorShapeManager(ptr noundef %0) #0 {
  %2 = alloca ptr, align 8
  %3 = alloca ptr, align 8
  store ptr %0, ptr %2, align 8
  call void @llvm.lifetime.start.p0(i64 8, ptr %3) #10
  %4 = load ptr, ptr %2, align 8
  %5 = getelementptr inbounds nuw %struct.SDL_VideoData, ptr %4, i32 0, i32 31
  %6 = getelementptr inbounds nuw %struct.wl_list, ptr %5, i32 0, i32 1
  %7 = load ptr, ptr %6, align 8
  %8 = getelementptr inbounds i8, ptr %7, i64 -40
  store ptr %8, ptr %3, align 8
  br label %9

9:                                                ; preds = %17, %1
  %10 = load ptr, ptr %3, align 8
  %11 = getelementptr inbounds nuw %struct.SDL_WaylandSeat, ptr %10, i32 0, i32 5
  %12 = load ptr, ptr %2, align 8
  %13 = getelementptr inbounds nuw %struct.SDL_VideoData, ptr %12, i32 0, i32 31
  %14 = icmp ne ptr %11, %13
  br i1 %14, label %15, label %23

15:                                               ; preds = %9
  %16 = load ptr, ptr %3, align 8
  call void @Wayland_SeatCreateCursorShape(ptr noundef %16)
  br label %17

17:                                               ; preds = %15
  %18 = load ptr, ptr %3, align 8
  %19 = getelementptr inbounds nuw %struct.SDL_WaylandSeat, ptr %18, i32 0, i32 5
  %20 = getelementptr inbounds nuw %struct.wl_list, ptr %19, i32 0, i32 1
  %21 = load ptr, ptr %20, align 8
  %22 = getelementptr inbounds i8, ptr %21, i64 -40
  store ptr %22, ptr %3, align 8
  br label %9, !llvm.loop !5

23:                                               ; preds = %9
  call void @llvm.lifetime.end.p0(i64 8, ptr %3) #10
  ret void
}