; Function Attrs: nounwind uwtable
define hidden void @Wayland_DisplayInitCursorShapeManager(ptr noundef readonly captures(address) %0) local_unnamed_addr #0 {
  %2 = getelementptr inbounds nuw i8, ptr %0, i64 248
  %3 = getelementptr inbounds nuw i8, ptr %0, i64 256
  %.pn6 = load ptr, ptr %3, align 8
  %.not7 = icmp eq ptr %.pn6, %2
  br i1 %.not7, label %._crit_edge, label %.lr.ph

.lr.ph:                                           ; preds = %1, %Wayland_SeatCreateCursorShape.exit
  %.pn8 = phi ptr [ %.pn, %Wayland_SeatCreateCursorShape.exit ], [ %.pn6, %1 ]
  %.0 = getelementptr inbounds i8, ptr %.pn8, i64 -40
  %4 = load ptr, ptr %.0, align 8
  %5 = getelementptr inbounds nuw i8, ptr %4, i64 88
  %6 = load ptr, ptr %5, align 8
  %.not.i = icmp eq ptr %6, null
  br i1 %.not.i, label %Wayland_SeatCreateCursorShape.exit, label %7

7:                                                ; preds = %.lr.ph
  %8 = getelementptr inbounds nuw i8, ptr %.pn8, i64 232
  %9 = load ptr, ptr %8, align 8
  %.not7.i = icmp eq ptr %9, null
  br i1 %.not7.i, label %Wayland_SeatCreateCursorShape.exit, label %10

10:                                               ; preds = %7
  %11 = getelementptr inbounds nuw i8, ptr %.pn8, i64 256
  %12 = load ptr, ptr %11, align 8
  %.not8.i = icmp eq ptr %12, null
  br i1 %.not8.i, label %13, label %Wayland_SeatCreateCursorShape.exit

13:                                               ; preds = %10
  %14 = load ptr, ptr @WAYLAND_wl_proxy_marshal_flags, align 8
  %15 = load ptr, ptr @WAYLAND_wl_proxy_get_version, align 8
  %16 = tail call i32 %15(ptr noundef nonnull %6) #12
  %17 = tail call ptr (ptr, i32, ptr, i32, i32, ...) %14(ptr noundef nonnull %6, i32 noundef 1, ptr noundef nonnull @wp_cursor_shape_device_v1_interface, i32 noundef %16, i32 noundef 0, ptr noundef null, ptr noundef nonnull %9) #12
  store ptr %17, ptr %11, align 8
  br label %Wayland_SeatCreateCursorShape.exit

Wayland_SeatCreateCursorShape.exit:               ; preds = %.lr.ph, %7, %10, %13
  %18 = getelementptr inbounds nuw i8, ptr %.pn8, i64 8
  %.pn = load ptr, ptr %18, align 8
  %.not = icmp eq ptr %.pn, %2
  br i1 %.not, label %._crit_edge, label %.lr.ph, !llvm.loop !5

._crit_edge:                                      ; preds = %Wayland_SeatCreateCursorShape.exit, %1
  ret void
}